target datalayout = "e-m:e-p270:32:32-p271:32:32-p272:64:64-i64:64-i128:128-f80:128-n8:16:32:64-S128"
target triple = "x86_64-pc-linux-gnu"

; Function Attrs: mustprogress uwtable
define dso_local noundef ptr @_ZN5cmsys11SystemTools15DuplicateStringEPKc(ptr noundef %0) #7 align 2 {
  %2 = alloca ptr, align 8
  %3 = alloca ptr, align 8
  %4 = alloca ptr, align 8
  store ptr %0, ptr %3, align 8, !tbaa !13
  %5 = load ptr, ptr %3, align 8, !tbaa !13
  %6 = icmp ne ptr %5, null
  br i1 %6, label %7, label %15

7:                                                ; preds = %1
  call void @llvm.lifetime.start.p0(i64 8, ptr %4) #1
  %8 = load ptr, ptr %3, align 8, !tbaa !13
  %9 = call i64 @strlen(ptr noundef %8) #24
  %10 = add i64 %9, 1
  %11 = call noalias noundef nonnull ptr @_Znam(i64 noundef %10) #25
  store ptr %11, ptr %4, align 8, !tbaa !13
  %12 = load ptr, ptr %4, align 8, !tbaa !13
  %13 = load ptr, ptr %3, align 8, !tbaa !13
  %14 = call ptr @strcpy(ptr noundef %12, ptr noundef %13) #1
  store ptr %14, ptr %2, align 8
  call void @llvm.lifetime.end.p0(i64 8, ptr %4) #1
  br label %16

15:                                               ; preds = %1
  store ptr null, ptr %2, align 8
  br label %16

16:                                               ; preds = %15, %7
  %17 = load ptr, ptr %2, align 8
  ret ptr %17
}