; Function Attrs: mustprogress uwtable
define dso_local noundef ptr @_ZN5cmsys11SystemTools15DuplicateStringEPKc(ptr noundef readonly %0) local_unnamed_addr #6 align 2 {
  %.not = icmp eq ptr %0, null
  br i1 %.not, label %7, label %2

2:                                                ; preds = %1
  %3 = tail call i64 @strlen(ptr noundef nonnull dereferenceable(1) %0) #43
  %4 = add i64 %3, 1
  %5 = tail call noalias noundef nonnull ptr @_Znam(i64 noundef %4) #44
  %6 = tail call ptr @strcpy(ptr noundef nonnull dereferenceable(1) %5, ptr noundef nonnull dereferenceable(1) %0) #39
  br label %7

7:                                                ; preds = %1, %2
  %.0 = phi ptr [ %5, %2 ], [ null, %1 ]
  ret ptr %.0
}